target datalayout = "e-m:e-p270:32:32-p271:32:32-p272:64:64-i64:64-i128:128-f80:128-n8:16:32:64-S128"
target triple = "x86_64-pc-linux-gnu"

%"struct.base::OffsetAdjuster::Adjustment" = type { i64, i64, i64 }
%"class.__gnu_cxx::__normal_iterator" = type { ptr }
%"class.__gnu_cxx::__normal_iterator.5" = type { ptr }
%"struct.std::_Vector_base.1" = type { %"struct.std::_Vector_base<unsigned long, std::allocator<unsigned long>>::_Vector_impl" }
%"struct.std::_Vector_base<unsigned long, std::allocator<unsigned long>>::_Vector_impl" = type { %"struct.std::_Vector_base<unsigned long, std::allocator<unsigned long>>::_Vector_impl_data" }
%"struct.std::_Vector_base<unsigned long, std::allocator<unsigned long>>::_Vector_impl_data" = type { ptr, ptr, ptr }
%"struct.std::_Vector_base" = type { %"struct.std::_Vector_base<base::OffsetAdjuster::Adjustment, std::allocator<base::OffsetAdjuster::Adjustment>>::_Vector_impl" }
%"struct.std::_Vector_base<base::OffsetAdjuster::Adjustment, std::allocator<base::OffsetAdjuster::Adjustment>>::_Vector_impl" = type { %"struct.std::_Vector_base<base::OffsetAdjuster::Adjustment, std::allocator<base::OffsetAdjuster::Adjustment>>::_Vector_impl_data" }
%"struct.std::_Vector_base<base::OffsetAdjuster::Adjustment, std::allocator<base::OffsetAdjuster::Adjustment>>::_Vector_impl_data" = type { ptr, ptr, ptr }

; Function Attrs: mustprogress nounwind uwtable
define linkonce_odr noundef nonnull align 8 dereferenceable(8) ptr @_ZNK9__gnu_cxx17__normal_iteratorIPKN4base14OffsetAdjuster10AdjustmentESt6vectorIS3_SaIS3_EEE4baseEv(ptr noundef nonnull align 8 dereferenceable(8) %0) #0 comdat align 2 {
  %2 = alloca ptr, align 8
  store ptr %0, ptr %2, align 8, !tbaa !29
  %3 = load ptr, ptr %2, align 8
  %4 = getelementptr inbounds nuw %"class.__gnu_cxx::__normal_iterator.5", ptr %3, i32 0, i32 0
  ret ptr %4
}

; Function Attrs: mustprogress nounwind uwtable
define linkonce_odr void @_ZN9__gnu_cxx17__normal_iteratorIPKN4base14OffsetAdjuster10AdjustmentESt6vectorIS3_SaIS3_EEEC2ERKS5_(ptr noundef nonnull align 8 dereferenceable(8) %0, ptr noundef nonnull align 8 dereferenceable(8) %1) unnamed_addr #0 comdat align 2 {
  %3 = alloca ptr, align 8
  %4 = alloca ptr, align 8
  store ptr %0, ptr %3, align 8, !tbaa !29
  store ptr %1, ptr %4, align 8, !tbaa !107
  %5 = load ptr, ptr %3, align 8
  %6 = getelementptr inbounds nuw %"class.__gnu_cxx::__normal_iterator.5", ptr %5, i32 0, i32 0
  %7 = load ptr, ptr %4, align 8, !tbaa !107
  %8 = load ptr, ptr %7, align 8, !tbaa !3
  store ptr %8, ptr %6, align 8, !tbaa !31
  ret void
}

; Function Attrs: mustprogress nounwind uwtable
define linkonce_odr noundef nonnull align 8 dereferenceable(8) ptr @_ZN9__gnu_cxx17__normal_iteratorIPKN4base14OffsetAdjuster10AdjustmentESt6vectorIS3_SaIS3_EEEppEv(ptr noundef nonnull align 8 dereferenceable(8) %0) #0 comdat align 2 {
  %2 = alloca ptr, align 8
  store ptr %0, ptr %2, align 8, !tbaa !29
  %3 = load ptr, ptr %2, align 8
  %4 = getelementptr inbounds nuw %"class.__gnu_cxx::__normal_iterator.5", ptr %3, i32 0, i32 0
  %5 = load ptr, ptr %4, align 8, !tbaa !31
  %6 = getelementptr inbounds nuw %"struct.base::OffsetAdjuster::Adjustment", ptr %5, i32 1
  store ptr %6, ptr %4, align 8, !tbaa !31
  ret ptr %3
}

; Function Attrs: mustprogress nounwind uwtable
define linkonce_odr noundef ptr @_ZNK9__gnu_cxx17__normal_iteratorIPKN4base14OffsetAdjuster10AdjustmentESt6vectorIS3_SaIS3_EEEptEv(ptr noundef nonnull align 8 dereferenceable(8) %0) #0 comdat align 2 {
  %2 = alloca ptr, align 8
  store ptr %0, ptr %2, align 8, !tbaa !29
  %3 = load ptr, ptr %2, align 8
  %4 = getelementptr inbounds nuw %"class.__gnu_cxx::__normal_iterator.5", ptr %3, i32 0, i32 0
  %5 = load ptr, ptr %4, align 8, !tbaa !31
  ret ptr %5
}

; Function Attrs: inlinehint mustprogress nounwind uwtable
define linkonce_odr noundef zeroext i1 @_ZN9__gnu_cxxneIPKN4base14OffsetAdjuster10AdjustmentESt6vectorIS3_SaIS3_EEEEbRKNS_17__normal_iteratorIT_T0_EESE_(ptr noundef nonnull align 8 dereferenceable(8) %0, ptr noundef nonnull align 8 dereferenceable(8) %1) #3 comdat {
  %3 = alloca ptr, align 8
  %4 = alloca ptr, align 8
  store ptr %0, ptr %3, align 8, !tbaa !29
  store ptr %1, ptr %4, align 8, !tbaa !29
  %5 = load ptr, ptr %3, align 8, !tbaa !29
  %6 = call noundef nonnull align 8 dereferenceable(8) ptr @_ZNK9__gnu_cxx17__normal_iteratorIPKN4base14OffsetAdjuster10AdjustmentESt6vectorIS3_SaIS3_EEE4baseEv(ptr noundef nonnull align 8 dereferenceable(8) %5) #15
  %7 = load ptr, ptr %6, align 8, !tbaa !3
  %8 = load ptr, ptr %4, align 8, !tbaa !29
  %9 = call noundef nonnull align 8 dereferenceable(8) ptr @_ZNK9__gnu_cxx17__normal_iteratorIPKN4base14OffsetAdjuster10AdjustmentESt6vectorIS3_SaIS3_EEE4baseEv(ptr noundef nonnull align 8 dereferenceable(8) %8) #15
  %10 = load ptr, ptr %9, align 8, !tbaa !3
  %11 = icmp ne ptr %7, %10
  ret i1 %11
}

; Function Attrs: mustprogress nounwind uwtable
define linkonce_odr noundef nonnull align 8 dereferenceable(8) ptr @_ZNK9__gnu_cxx17__normal_iteratorIPmSt6vectorImSaImEEE4baseEv(ptr noundef nonnull align 8 dereferenceable(8) %0) #0 comdat align 2 {
  %2 = alloca ptr, align 8
  store ptr %0, ptr %2, align 8, !tbaa !20
  %3 = load ptr, ptr %2, align 8
  %4 = getelementptr inbounds nuw %"class.__gnu_cxx::__normal_iterator", ptr %3, i32 0, i32 0
  ret ptr %4
}

; Function Attrs: mustprogress nounwind uwtable
define linkonce_odr void @_ZN9__gnu_cxx17__normal_iteratorIPmSt6vectorImSaImEEEC2ERKS1_(ptr noundef nonnull align 8 dereferenceable(8) %0, ptr noundef nonnull align 8 dereferenceable(8) %1) unnamed_addr #0 comdat align 2 {
  %3 = alloca ptr, align 8
  %4 = alloca ptr, align 8
  store ptr %0, ptr %3, align 8, !tbaa !20
  store ptr %1, ptr %4, align 8, !tbaa !105
  %5 = load ptr, ptr %3, align 8
  %6 = getelementptr inbounds nuw %"class.__gnu_cxx::__normal_iterator", ptr %5, i32 0, i32 0
  %7 = load ptr, ptr %4, align 8, !tbaa !105
  %8 = load ptr, ptr %7, align 8, !tbaa !22
  store ptr %8, ptr %6, align 8, !tbaa !27
  ret void
}

; Function Attrs: inlinehint mustprogress nounwind uwtable
define linkonce_odr noundef zeroext i1 @_ZN9__gnu_cxxeqIPKN4base14OffsetAdjuster10AdjustmentESt6vectorIS3_SaIS3_EEEEbRKNS_17__normal_iteratorIT_T0_EESE_(ptr noundef nonnull align 8 dereferenceable(8) %0, ptr noundef nonnull align 8 dereferenceable(8) %1) #3 comdat {
  %3 = alloca ptr, align 8
  %4 = alloca ptr, align 8
  store ptr %0, ptr %3, align 8, !tbaa !29
  store ptr %1, ptr %4, align 8, !tbaa !29
  %5 = load ptr, ptr %3, align 8, !tbaa !29
  %6 = call noundef nonnull align 8 dereferenceable(8) ptr @_ZNK9__gnu_cxx17__normal_iteratorIPKN4base14OffsetAdjuster10AdjustmentESt6vectorIS3_SaIS3_EEE4baseEv(ptr noundef nonnull align 8 dereferenceable(8) %5) #15
  %7 = load ptr, ptr %6, align 8, !tbaa !3
  %8 = load ptr, ptr %4, align 8, !tbaa !29
  %9 = call noundef nonnull align 8 dereferenceable(8) ptr @_ZNK9__gnu_cxx17__normal_iteratorIPKN4base14OffsetAdjuster10AdjustmentESt6vectorIS3_SaIS3_EEE4baseEv(ptr noundef nonnull align 8 dereferenceable(8) %8) #15
  %10 = load ptr, ptr %9, align 8, !tbaa !3
  %11 = icmp eq ptr %7, %10
  ret i1 %11
}

; Function Attrs: mustprogress nounwind uwtable
define linkonce_odr ptr @_ZNKSt6vectorIN4base14OffsetAdjuster10AdjustmentESaIS2_EE3endEv(ptr noundef nonnull align 8 dereferenceable(24) %0) #0 comdat align 2 {
  %2 = alloca %"class.__gnu_cxx::__normal_iterator.5", align 8
  %3 = alloca ptr, align 8
  store ptr %0, ptr %3, align 8, !tbaa !14
  %4 = load ptr, ptr %3, align 8
  %5 = getelementptr inbounds nuw %"struct.std::_Vector_base", ptr %4, i32 0, i32 0
  %6 = getelementptr inbounds nuw %"struct.std::_Vector_base<base::OffsetAdjuster::Adjustment, std::allocator<base::OffsetAdjuster::Adjustment>>::_Vector_impl_data", ptr %5, i32 0, i32 1
  call void @_ZN9__gnu_cxx17__normal_iteratorIPKN4base14OffsetAdjuster10AdjustmentESt6vectorIS3_SaIS3_EEEC2ERKS5_(ptr noundef nonnull align 8 dereferenceable(8) %2, ptr noundef nonnull align 8 dereferenceable(8) %6) #15
  %7 = getelementptr inbounds nuw %"class.__gnu_cxx::__normal_iterator.5", ptr %2, i32 0, i32 0
  %8 = load ptr, ptr %7, align 8
  ret ptr %8
}

; Function Attrs: mustprogress nounwind uwtable
define linkonce_odr ptr @_ZNKSt6vectorIN4base14OffsetAdjuster10AdjustmentESaIS2_EE5beginEv(ptr noundef nonnull align 8 dereferenceable(24) %0) #0 comdat align 2 {
  %2 = alloca %"class.__gnu_cxx::__normal_iterator.5", align 8
  %3 = alloca ptr, align 8
  store ptr %0, ptr %3, align 8, !tbaa !14
  %4 = load ptr, ptr %3, align 8
  %5 = getelementptr inbounds nuw %"struct.std::_Vector_base", ptr %4, i32 0, i32 0
  %6 = getelementptr inbounds nuw %"struct.std::_Vector_base<base::OffsetAdjuster::Adjustment, std::allocator<base::OffsetAdjuster::Adjustment>>::_Vector_impl_data", ptr %5, i32 0, i32 0
  call void @_ZN9__gnu_cxx17__normal_iteratorIPKN4base14OffsetAdjuster10AdjustmentESt6vectorIS3_SaIS3_EEEC2ERKS5_(ptr noundef nonnull align 8 dereferenceable(8) %2, ptr noundef nonnull align 8 dereferenceable(8) %6) #15
  %7 = getelementptr inbounds nuw %"class.__gnu_cxx::__normal_iterator.5", ptr %2, i32 0, i32 0
  %8 = load ptr, ptr %7, align 8
  ret ptr %8
}

; Function Attrs: mustprogress nounwind uwtable
define linkonce_odr noundef nonnull align 8 dereferenceable(8) ptr @_ZN9__gnu_cxx17__normal_iteratorIPmSt6vectorImSaImEEEppEv(ptr noundef nonnull align 8 dereferenceable(8) %0) #0 comdat align 2 {
  %2 = alloca ptr, align 8
  store ptr %0, ptr %2, align 8, !tbaa !20
  %3 = load ptr, ptr %2, align 8
  %4 = getelementptr inbounds nuw %"class.__gnu_cxx::__normal_iterator", ptr %3, i32 0, i32 0
  %5 = load ptr, ptr %4, align 8, !tbaa !27
  %6 = getelementptr inbounds nuw i64, ptr %5, i32 1
  store ptr %6, ptr %4, align 8, !tbaa !27
  ret ptr %3
}

; Function Attrs: mustprogress nounwind uwtable
define void @_ZN4base14OffsetAdjuster12AdjustOffsetERKSt6vectorINS0_10AdjustmentESaIS2_EEPm(ptr noundef nonnull align 8 dereferenceable(24) %0, ptr noundef %1) #0 align 2 {
  %3 = alloca ptr, align 8
  %4 = alloca ptr, align 8
  %5 = alloca i32, align 4
  %6 = alloca %"class.__gnu_cxx::__normal_iterator.5", align 8
  %7 = alloca %"class.__gnu_cxx::__normal_iterator.5", align 8
  %8 = alloca i32, align 4
  store ptr %0, ptr %3, align 8, !tbaa !14
  store ptr %1, ptr %4, align 8, !tbaa !22
  %9 = load ptr, ptr %4, align 8, !tbaa !22
  %10 = load i64, ptr %9, align 8, !tbaa !8
  %11 = icmp eq i64 %10, -1
  br i1 %11, label %12, label %13

12:                                               ; preds = %2
  br label %67

13:                                               ; preds = %2
  call void @llvm.lifetime.start.p0(i64 4, ptr %5) #15
  store i32 0, ptr %5, align 4, !tbaa !24
  call void @llvm.lifetime.start.p0(i64 8, ptr %6) #15
  %14 = load ptr, ptr %3, align 8, !tbaa !14
  %15 = call ptr @_ZNKSt6vectorIN4base14OffsetAdjuster10AdjustmentESaIS2_EE5beginEv(ptr noundef nonnull align 8 dereferenceable(24) %14) #15
  %16 = getelementptr inbounds nuw %"class.__gnu_cxx::__normal_iterator.5", ptr %6, i32 0, i32 0
  store ptr %15, ptr %16, align 8
  br label %17

17:                                               ; preds = %55, %13
  call void @llvm.lifetime.start.p0(i64 8, ptr %7) #15
  %18 = load ptr, ptr %3, align 8, !tbaa !14
  %19 = call ptr @_ZNKSt6vectorIN4base14OffsetAdjuster10AdjustmentESaIS2_EE3endEv(ptr noundef nonnull align 8 dereferenceable(24) %18) #15
  %20 = getelementptr inbounds nuw %"class.__gnu_cxx::__normal_iterator.5", ptr %7, i32 0, i32 0
  store ptr %19, ptr %20, align 8
  %21 = call noundef zeroext i1 @_ZN9__gnu_cxxneIPKN4base14OffsetAdjuster10AdjustmentESt6vectorIS3_SaIS3_EEEEbRKNS_17__normal_iteratorIT_T0_EESE_(ptr noundef nonnull align 8 dereferenceable(8) %6, ptr noundef nonnull align 8 dereferenceable(8) %7) #15
  call void @llvm.lifetime.end.p0(i64 8, ptr %7) #15
  br i1 %21, label %23, label %22

22:                                               ; preds = %17
  store i32 2, ptr %8, align 4
  br label %57

23:                                               ; preds = %17
  %24 = load ptr, ptr %4, align 8, !tbaa !22
  %25 = load i64, ptr %24, align 8, !tbaa !8
  %26 = call noundef ptr @_ZNK9__gnu_cxx17__normal_iteratorIPKN4base14OffsetAdjuster10AdjustmentESt6vectorIS3_SaIS3_EEEptEv(ptr noundef nonnull align 8 dereferenceable(8) %6) #15
  %27 = getelementptr inbounds nuw %"struct.base::OffsetAdjuster::Adjustment", ptr %26, i32 0, i32 0
  %28 = load i64, ptr %27, align 8, !tbaa !10
  %29 = icmp ule i64 %25, %28
  br i1 %29, label %30, label %31

30:                                               ; preds = %23
  store i32 2, ptr %8, align 4
  br label %57

31:                                               ; preds = %23
  %32 = load ptr, ptr %4, align 8, !tbaa !22
  %33 = load i64, ptr %32, align 8, !tbaa !8
  %34 = call noundef ptr @_ZNK9__gnu_cxx17__normal_iteratorIPKN4base14OffsetAdjuster10AdjustmentESt6vectorIS3_SaIS3_EEEptEv(ptr noundef nonnull align 8 dereferenceable(8) %6) #15
  %35 = getelementptr inbounds nuw %"struct.base::OffsetAdjuster::Adjustment", ptr %34, i32 0, i32 0
  %36 = load i64, ptr %35, align 8, !tbaa !10
  %37 = call noundef ptr @_ZNK9__gnu_cxx17__normal_iteratorIPKN4base14OffsetAdjuster10AdjustmentESt6vectorIS3_SaIS3_EEEptEv(ptr noundef nonnull align 8 dereferenceable(8) %6) #15
  %38 = getelementptr inbounds nuw %"struct.base::OffsetAdjuster::Adjustment", ptr %37, i32 0, i32 1
  %39 = load i64, ptr %38, align 8, !tbaa !12
  %40 = add i64 %36, %39
  %41 = icmp ult i64 %33, %40
  br i1 %41, label %42, label %44

42:                                               ; preds = %31
  %43 = load ptr, ptr %4, align 8, !tbaa !22
  store i64 -1, ptr %43, align 8, !tbaa !8
  store i32 1, ptr %8, align 4
  br label %57

44:                                               ; preds = %31
  %45 = call noundef ptr @_ZNK9__gnu_cxx17__normal_iteratorIPKN4base14OffsetAdjuster10AdjustmentESt6vectorIS3_SaIS3_EEEptEv(ptr noundef nonnull align 8 dereferenceable(8) %6) #15
  %46 = getelementptr inbounds nuw %"struct.base::OffsetAdjuster::Adjustment", ptr %45, i32 0, i32 1
  %47 = load i64, ptr %46, align 8, !tbaa !12
  %48 = call noundef ptr @_ZNK9__gnu_cxx17__normal_iteratorIPKN4base14OffsetAdjuster10AdjustmentESt6vectorIS3_SaIS3_EEEptEv(ptr noundef nonnull align 8 dereferenceable(8) %6) #15
  %49 = getelementptr inbounds nuw %"struct.base::OffsetAdjuster::Adjustment", ptr %48, i32 0, i32 2
  %50 = load i64, ptr %49, align 8, !tbaa !13
  %51 = sub i64 %47, %50
  %52 = trunc i64 %51 to i32
  %53 = load i32, ptr %5, align 4, !tbaa !24
  %54 = add nsw i32 %53, %52
  store i32 %54, ptr %5, align 4, !tbaa !24
  br label %55

55:                                               ; preds = %44
  %56 = call noundef nonnull align 8 dereferenceable(8) ptr @_ZN9__gnu_cxx17__normal_iteratorIPKN4base14OffsetAdjuster10AdjustmentESt6vectorIS3_SaIS3_EEEppEv(ptr noundef nonnull align 8 dereferenceable(8) %6) #15
  br label %17, !llvm.loop !26

57:                                               ; preds = %42, %30, %22
  call void @llvm.lifetime.end.p0(i64 8, ptr %6) #15
  %58 = load i32, ptr %8, align 4
  switch i32 %58, label %65 [
    i32 2, label %59
  ]

59:                                               ; preds = %57
  %60 = load i32, ptr %5, align 4, !tbaa !24
  %61 = sext i32 %60 to i64
  %62 = load ptr, ptr %4, align 8, !tbaa !22
  %63 = load i64, ptr %62, align 8, !tbaa !8
  %64 = sub i64 %63, %61
  store i64 %64, ptr %62, align 8, !tbaa !8
  store i32 0, ptr %8, align 4
  br label %65

65:                                               ; preds = %59, %57
  call void @llvm.lifetime.end.p0(i64 4, ptr %5) #15
  %66 = load i32, ptr %8, align 4
  switch i32 %66, label %68 [
    i32 0, label %67
    i32 1, label %67
  ]

67:                                               ; preds = %12, %65, %65
  ret void

68:                                               ; preds = %65
  unreachable
}

; Function Attrs: mustprogress nounwind uwtable
define linkonce_odr noundef nonnull align 8 dereferenceable(8) ptr @_ZNK9__gnu_cxx17__normal_iteratorIPmSt6vectorImSaImEEEdeEv(ptr noundef nonnull align 8 dereferenceable(8) %0) #0 comdat align 2 {
  %2 = alloca ptr, align 8
  store ptr %0, ptr %2, align 8, !tbaa !20
  %3 = load ptr, ptr %2, align 8
  %4 = getelementptr inbounds nuw %"class.__gnu_cxx::__normal_iterator", ptr %3, i32 0, i32 0
  %5 = load ptr, ptr %4, align 8, !tbaa !27
  ret ptr %5
}

; Function Attrs: inlinehint mustprogress nounwind uwtable
define linkonce_odr noundef zeroext i1 @_ZN9__gnu_cxxneIPmSt6vectorImSaImEEEEbRKNS_17__normal_iteratorIT_T0_EESA_(ptr noundef nonnull align 8 dereferenceable(8) %0, ptr noundef nonnull align 8 dereferenceable(8) %1) #3 comdat {
  %3 = alloca ptr, align 8
  %4 = alloca ptr, align 8
  store ptr %0, ptr %3, align 8, !tbaa !20
  store ptr %1, ptr %4, align 8, !tbaa !20
  %5 = load ptr, ptr %3, align 8, !tbaa !20
  %6 = call noundef nonnull align 8 dereferenceable(8) ptr @_ZNK9__gnu_cxx17__normal_iteratorIPmSt6vectorImSaImEEE4baseEv(ptr noundef nonnull align 8 dereferenceable(8) %5) #15
  %7 = load ptr, ptr %6, align 8, !tbaa !22
  %8 = load ptr, ptr %4, align 8, !tbaa !20
  %9 = call noundef nonnull align 8 dereferenceable(8) ptr @_ZNK9__gnu_cxx17__normal_iteratorIPmSt6vectorImSaImEEE4baseEv(ptr noundef nonnull align 8 dereferenceable(8) %8) #15
  %10 = load ptr, ptr %9, align 8, !tbaa !22
  %11 = icmp ne ptr %7, %10
  ret i1 %11
}

; Function Attrs: mustprogress nounwind uwtable
define linkonce_odr ptr @_ZNSt6vectorImSaImEE3endEv(ptr noundef nonnull align 8 dereferenceable(24) %0) #0 comdat align 2 {
  %2 = alloca %"class.__gnu_cxx::__normal_iterator", align 8
  %3 = alloca ptr, align 8
  store ptr %0, ptr %3, align 8, !tbaa !16
  %4 = load ptr, ptr %3, align 8
  %5 = getelementptr inbounds nuw %"struct.std::_Vector_base.1", ptr %4, i32 0, i32 0
  %6 = getelementptr inbounds nuw %"struct.std::_Vector_base<unsigned long, std::allocator<unsigned long>>::_Vector_impl_data", ptr %5, i32 0, i32 1
  call void @_ZN9__gnu_cxx17__normal_iteratorIPmSt6vectorImSaImEEEC2ERKS1_(ptr noundef nonnull align 8 dereferenceable(8) %2, ptr noundef nonnull align 8 dereferenceable(8) %6) #15
  %7 = getelementptr inbounds nuw %"class.__gnu_cxx::__normal_iterator", ptr %2, i32 0, i32 0
  %8 = load ptr, ptr %7, align 8
  ret ptr %8
}

; Function Attrs: mustprogress nounwind uwtable
define linkonce_odr ptr @_ZNSt6vectorImSaImEE5beginEv(ptr noundef nonnull align 8 dereferenceable(24) %0) #0 comdat align 2 {
  %2 = alloca %"class.__gnu_cxx::__normal_iterator", align 8
  %3 = alloca ptr, align 8
  store ptr %0, ptr %3, align 8, !tbaa !16
  %4 = load ptr, ptr %3, align 8
  %5 = getelementptr inbounds nuw %"struct.std::_Vector_base.1", ptr %4, i32 0, i32 0
  %6 = getelementptr inbounds nuw %"struct.std::_Vector_base<unsigned long, std::allocator<unsigned long>>::_Vector_impl_data", ptr %5, i32 0, i32 0
  call void @_ZN9__gnu_cxx17__normal_iteratorIPmSt6vectorImSaImEEEC2ERKS1_(ptr noundef nonnull align 8 dereferenceable(8) %2, ptr noundef nonnull align 8 dereferenceable(8) %6) #15
  %7 = getelementptr inbounds nuw %"class.__gnu_cxx::__normal_iterator", ptr %2, i32 0, i32 0
  %8 = load ptr, ptr %7, align 8
  ret ptr %8
}

; Function Attrs: mustprogress nounwind uwtable
define linkonce_odr noundef zeroext i1 @_ZNKSt6vectorIN4base14OffsetAdjuster10AdjustmentESaIS2_EE5emptyEv(ptr noundef nonnull align 8 dereferenceable(24) %0) #0 comdat align 2 {
  %2 = alloca ptr, align 8
  %3 = alloca %"class.__gnu_cxx::__normal_iterator.5", align 8
  %4 = alloca %"class.__gnu_cxx::__normal_iterator.5", align 8
  store ptr %0, ptr %2, align 8, !tbaa !14
  %5 = load ptr, ptr %2, align 8
  call void @llvm.lifetime.start.p0(i64 8, ptr %3) #15
  %6 = call ptr @_ZNKSt6vectorIN4base14OffsetAdjuster10AdjustmentESaIS2_EE5beginEv(ptr noundef nonnull align 8 dereferenceable(24) %5) #15
  %7 = getelementptr inbounds nuw %"class.__gnu_cxx::__normal_iterator.5", ptr %3, i32 0, i32 0
  store ptr %6, ptr %7, align 8
  call void @llvm.lifetime.start.p0(i64 8, ptr %4) #15
  %8 = call ptr @_ZNKSt6vectorIN4base14OffsetAdjuster10AdjustmentESaIS2_EE3endEv(ptr noundef nonnull align 8 dereferenceable(24) %5) #15
  %9 = getelementptr inbounds nuw %"class.__gnu_cxx::__normal_iterator.5", ptr %4, i32 0, i32 0
  store ptr %8, ptr %9, align 8
  %10 = call noundef zeroext i1 @_ZN9__gnu_cxxeqIPKN4base14OffsetAdjuster10AdjustmentESt6vectorIS3_SaIS3_EEEEbRKNS_17__normal_iteratorIT_T0_EESE_(ptr noundef nonnull align 8 dereferenceable(8) %3, ptr noundef nonnull align 8 dereferenceable(8) %4) #15
  call void @llvm.lifetime.end.p0(i64 8, ptr %4) #15
  call void @llvm.lifetime.end.p0(i64 8, ptr %3) #15
  ret i1 %10
}

; Function Attrs: mustprogress uwtable
define void @_ZN4base14OffsetAdjuster13AdjustOffsetsERKSt6vectorINS0_10AdjustmentESaIS2_EEPS1_ImSaImEE(ptr noundef nonnull align 8 dereferenceable(24) %0, ptr noundef %1) #1 align 2 {
  %3 = alloca ptr, align 8
  %4 = alloca ptr, align 8
  %5 = alloca %"class.__gnu_cxx::__normal_iterator", align 8
  %6 = alloca %"class.__gnu_cxx::__normal_iterator", align 8
  store ptr %0, ptr %3, align 8, !tbaa !14
  store ptr %1, ptr %4, align 8, !tbaa !16
  %7 = load ptr, ptr %4, align 8, !tbaa !16
  %8 = icmp ne ptr %7, null
  br i1 %8, label %9, label %12

9:                                                ; preds = %2
  %10 = load ptr, ptr %3, align 8, !tbaa !14
  %11 = call noundef zeroext i1 @_ZNKSt6vectorIN4base14OffsetAdjuster10AdjustmentESaIS2_EE5emptyEv(ptr noundef nonnull align 8 dereferenceable(24) %10) #15
  br i1 %11, label %12, label %13

12:                                               ; preds = %9, %2
  br label %28

13:                                               ; preds = %9
  call void @llvm.lifetime.start.p0(i64 8, ptr %5) #15
  %14 = load ptr, ptr %4, align 8, !tbaa !16
  %15 = call ptr @_ZNSt6vectorImSaImEE5beginEv(ptr noundef nonnull align 8 dereferenceable(24) %14) #15
  %16 = getelementptr inbounds nuw %"class.__gnu_cxx::__normal_iterator", ptr %5, i32 0, i32 0
  store ptr %15, ptr %16, align 8
  br label %17

17:                                               ; preds = %26, %13
  call void @llvm.lifetime.start.p0(i64 8, ptr %6) #15
  %18 = load ptr, ptr %4, align 8, !tbaa !16
  %19 = call ptr @_ZNSt6vectorImSaImEE3endEv(ptr noundef nonnull align 8 dereferenceable(24) %18) #15
  %20 = getelementptr inbounds nuw %"class.__gnu_cxx::__normal_iterator", ptr %6, i32 0, i32 0
  store ptr %19, ptr %20, align 8
  %21 = call noundef zeroext i1 @_ZN9__gnu_cxxneIPmSt6vectorImSaImEEEEbRKNS_17__normal_iteratorIT_T0_EESA_(ptr noundef nonnull align 8 dereferenceable(8) %5, ptr noundef nonnull align 8 dereferenceable(8) %6) #15
  call void @llvm.lifetime.end.p0(i64 8, ptr %6) #15
  br i1 %21, label %23, label %22

22:                                               ; preds = %17
  call void @llvm.lifetime.end.p0(i64 8, ptr %5) #15
  br label %28

23:                                               ; preds = %17
  %24 = load ptr, ptr %3, align 8, !tbaa !14
  %25 = call noundef nonnull align 8 dereferenceable(8) ptr @_ZNK9__gnu_cxx17__normal_iteratorIPmSt6vectorImSaImEEEdeEv(ptr noundef nonnull align 8 dereferenceable(8) %5) #15
  call void @_ZN4base14OffsetAdjuster12AdjustOffsetERKSt6vectorINS0_10AdjustmentESaIS2_EEPm(ptr noundef nonnull align 8 dereferenceable(24) %24, ptr noundef %25)
  br label %26

26:                                               ; preds = %23
  %27 = call noundef nonnull align 8 dereferenceable(8) ptr @_ZN9__gnu_cxx17__normal_iteratorIPmSt6vectorImSaImEEEppEv(ptr noundef nonnull align 8 dereferenceable(8) %5) #15
  br label %17, !llvm.loop !18

28:                                               ; preds = %12, %22
  ret void
}