; Function Attrs: mustprogress nofree norecurse nosync nounwind memory(readwrite, inaccessiblemem: none) uwtable
define void @_ZN4base14OffsetAdjuster13AdjustOffsetsERKSt6vectorINS0_10AdjustmentESaIS2_EEPS1_ImSaImEE(ptr noundef nonnull readonly align 8 captures(none) dereferenceable(24) %0, ptr noundef readonly captures(address_is_null) %1) local_unnamed_addr #1 align 2 {
  %.not = icmp eq ptr %1, null
  br i1 %.not, label %.loopexit, label %3

3:                                                ; preds = %2
  %4 = load ptr, ptr %0, align 8, !tbaa !10
  %5 = getelementptr inbounds nuw i8, ptr %0, i64 8
  %6 = load ptr, ptr %5, align 8, !tbaa !10
  %7 = icmp eq ptr %4, %6
  br i1 %7, label %.loopexit, label %8

8:                                                ; preds = %3
  %9 = load ptr, ptr %1, align 8, !tbaa !13
  %10 = getelementptr inbounds nuw i8, ptr %1, i64 8
  %11 = load ptr, ptr %10, align 8, !tbaa !13
  %.not89 = icmp eq ptr %9, %11
  br i1 %.not89, label %.loopexit, label %.lr.ph

.lr.ph:                                           ; preds = %8, %_ZN4base14OffsetAdjuster12AdjustOffsetERKSt6vectorINS0_10AdjustmentESaIS2_EEPm.exit
  %.sroa.05.010 = phi ptr [ %29, %_ZN4base14OffsetAdjuster12AdjustOffsetERKSt6vectorINS0_10AdjustmentESaIS2_EEPm.exit ], [ %9, %8 ]
  %12 = load i64, ptr %.sroa.05.010, align 8, !tbaa !15
  %13 = icmp eq i64 %12, -1
  br i1 %13, label %_ZN4base14OffsetAdjuster12AdjustOffsetERKSt6vectorINS0_10AdjustmentESaIS2_EEPm.exit, label %.lr.ph.i

.lr.ph.i:                                         ; preds = %.lr.ph, %20
  %.0921.i = phi i32 [ %25, %20 ], [ 0, %.lr.ph ]
  %.sroa.010.020.i = phi ptr [ %26, %20 ], [ %4, %.lr.ph ]
  %14 = load i64, ptr %.sroa.010.020.i, align 8, !tbaa !3
  %.not.i = icmp ugt i64 %12, %14
  br i1 %.not.i, label %15, label %._crit_edge.i

15:                                               ; preds = %.lr.ph.i
  %16 = getelementptr inbounds nuw i8, ptr %.sroa.010.020.i, i64 8
  %17 = load i64, ptr %16, align 8, !tbaa !8
  %18 = add i64 %17, %14
  %19 = icmp ult i64 %12, %18
  br i1 %19, label %.sink.split.i, label %20

20:                                               ; preds = %15
  %21 = getelementptr inbounds nuw i8, ptr %.sroa.010.020.i, i64 16
  %22 = load i64, ptr %21, align 8, !tbaa !9
  %23 = sub i64 %17, %22
  %24 = trunc i64 %23 to i32
  %25 = add nsw i32 %.0921.i, %24
  %26 = getelementptr inbounds nuw i8, ptr %.sroa.010.020.i, i64 24
  %.not17.i = icmp eq ptr %26, %6
  br i1 %.not17.i, label %._crit_edge.i, label %.lr.ph.i, !llvm.loop !16

._crit_edge.i:                                    ; preds = %.lr.ph.i, %20
  %.09.lcssa.ph.i = phi i32 [ %25, %20 ], [ %.0921.i, %.lr.ph.i ]
  %27 = sext i32 %.09.lcssa.ph.i to i64
  %28 = sub i64 %12, %27
  br label %.sink.split.i

.sink.split.i:                                    ; preds = %15, %._crit_edge.i
  %.sink.i = phi i64 [ %28, %._crit_edge.i ], [ -1, %15 ]
  store i64 %.sink.i, ptr %.sroa.05.010, align 8, !tbaa !15
  br label %_ZN4base14OffsetAdjuster12AdjustOffsetERKSt6vectorINS0_10AdjustmentESaIS2_EEPm.exit

_ZN4base14OffsetAdjuster12AdjustOffsetERKSt6vectorINS0_10AdjustmentESaIS2_EEPm.exit: ; preds = %.lr.ph, %.sink.split.i
  %29 = getelementptr inbounds nuw i8, ptr %.sroa.05.010, i64 8
  %.not8 = icmp eq ptr %29, %11
  br i1 %.not8, label %.loopexit, label %.lr.ph, !llvm.loop !18

.loopexit:                                        ; preds = %_ZN4base14OffsetAdjuster12AdjustOffsetERKSt6vectorINS0_10AdjustmentESaIS2_EEPm.exit, %8, %2, %3
  ret void
}